	.file	"x64-calling-convention.cc"
	.text
.Ltext0:
	.globl	f
	.bss
	.align 8
	.type	f, @object
	.size	f, 8
f:
	.zero	8
	.text
	.globl	_Z3fooPcy
	.type	_Z3fooPcy, @function
_Z3fooPcy:
.LFB0:
	.file 1 "x64-calling-convention.cc"
	.loc 1 3 0
	.cfi_startproc
	pushq	%rbp
.LCFI0:
	.cfi_def_cfa_offset 16
	.cfi_offset 6, -16
	movq	%rsp, %rbp
.LCFI1:
	.cfi_def_cfa_register 6
	movq	%rdi, -8(%rbp)
	movq	%rsi, -16(%rbp)
	.loc 1 4 0
	popq	%rbp
.LCFI2:
	.cfi_def_cfa 7, 8
	ret
	.cfi_endproc
.LFE0:
	.size	_Z3fooPcy, .-_Z3fooPcy
	.globl	_Z3barPcy
	.type	_Z3barPcy, @function
_Z3barPcy:
.LFB1:
	.loc 1 6 0
	.cfi_startproc
	pushq	%rbp
.LCFI3:
	.cfi_def_cfa_offset 16
	.cfi_offset 6, -16
	movq	%rsp, %rbp
.LCFI4:
	.cfi_def_cfa_register 6
	movq	%rdi, -8(%rbp)
	movq	%rsi, -16(%rbp)
	.loc 1 7 0
	popq	%rbp
.LCFI5:
	.cfi_def_cfa 7, 8
	ret
	.cfi_endproc
.LFE1:
	.size	_Z3barPcy, .-_Z3barPcy
	.section	.rodata
.LC0:
	.string	"hello world"
	.text
	.globl	main
	.type	main, @function
main:
.LFB2:
	.loc 1 9 0
	.cfi_startproc
	pushq	%rbp
.LCFI6:
	.cfi_def_cfa_offset 16
	.cfi_offset 6, -16
	movq	%rsp, %rbp
.LCFI7:
	.cfi_def_cfa_register 6
	subq	$16, %rsp
.LBB2:
	.loc 1 10 0
	movq	$.LC0, -8(%rbp)
	.loc 1 11 0
	movq	$_Z3fooPcy, f(%rip)
	.loc 1 12 0
	movq	f(%rip), %rdx
	movq	-8(%rbp), %rax
	movl	$12, %esi
	movq	%rax, %rdi
	call	*%rdx
	.loc 1 13 0
	movl	$0, %eax
.LBE2:
	.loc 1 14 0
	leave
.LCFI8:
	.cfi_def_cfa 7, 8
	ret
	.cfi_endproc
.LFE2:
	.size	main, .-main
.Letext0:
	.section	.note.GNU-stack,"",@progbits
